
libvar.so:     file format elf64-x86-64


Disassembly of section .init:

0000000000001000 <_init>:
    1000:	f3 0f 1e fa          	endbr64 
    1004:	48 83 ec 08          	sub    $0x8,%rsp
    1008:	48 8b 05 d9 2f 00 00 	mov    0x2fd9(%rip),%rax        # 3fe8 <__gmon_start__@Base>
    100f:	48 85 c0             	test   %rax,%rax
    1012:	74 02                	je     1016 <_init+0x16>
    1014:	ff d0                	call   *%rax
    1016:	48 83 c4 08          	add    $0x8,%rsp
    101a:	c3                   	ret    

Disassembly of section .plt:

0000000000001020 <.plt>:
    1020:	ff 35 e2 2f 00 00    	push   0x2fe2(%rip)        # 4008 <_GLOBAL_OFFSET_TABLE_+0x8>
    1026:	f2 ff 25 e3 2f 00 00 	bnd jmp *0x2fe3(%rip)        # 4010 <_GLOBAL_OFFSET_TABLE_+0x10>
    102d:	0f 1f 00             	nopl   (%rax)
    1030:	f3 0f 1e fa          	endbr64 
    1034:	68 00 00 00 00       	push   $0x0
    1039:	f2 e9 e1 ff ff ff    	bnd jmp 1020 <_init+0x20>
    103f:	90                   	nop
    1040:	f3 0f 1e fa          	endbr64 
    1044:	68 01 00 00 00       	push   $0x1
    1049:	f2 e9 d1 ff ff ff    	bnd jmp 1020 <_init+0x20>
    104f:	90                   	nop
    1050:	f3 0f 1e fa          	endbr64 
    1054:	68 02 00 00 00       	push   $0x2
    1059:	f2 e9 c1 ff ff ff    	bnd jmp 1020 <_init+0x20>
    105f:	90                   	nop

Disassembly of section .plt.got:

0000000000001060 <__cxa_finalize@plt>:
    1060:	f3 0f 1e fa          	endbr64 
    1064:	f2 ff 25 55 2f 00 00 	bnd jmp *0x2f55(%rip)        # 3fc0 <__cxa_finalize@GLIBC_2.2.5>
    106b:	0f 1f 44 00 00       	nopl   0x0(%rax,%rax,1)

Disassembly of section .plt.sec:

0000000000001070 <__cxa_atexit@plt>:
    1070:	f3 0f 1e fa          	endbr64 
    1074:	f2 ff 25 9d 2f 00 00 	bnd jmp *0x2f9d(%rip)        # 4018 <__cxa_atexit@GLIBC_2.2.5>
    107b:	0f 1f 44 00 00       	nopl   0x0(%rax,%rax,1)

0000000000001080 <_ZNSt8ios_base4InitC1Ev@plt>:
    1080:	f3 0f 1e fa          	endbr64 
    1084:	f2 ff 25 95 2f 00 00 	bnd jmp *0x2f95(%rip)        # 4020 <_ZNSt8ios_base4InitC1Ev@GLIBCXX_3.4>
    108b:	0f 1f 44 00 00       	nopl   0x0(%rax,%rax,1)

0000000000001090 <_ZNSolsEi@plt>:
    1090:	f3 0f 1e fa          	endbr64 
    1094:	f2 ff 25 8d 2f 00 00 	bnd jmp *0x2f8d(%rip)        # 4028 <_ZNSolsEi@GLIBCXX_3.4>
    109b:	0f 1f 44 00 00       	nopl   0x0(%rax,%rax,1)

Disassembly of section .text:

00000000000010a0 <deregister_tm_clones>:
    10a0:	48 8d 3d 99 2f 00 00 	lea    0x2f99(%rip),%rdi        # 4040 <completed.0>
    10a7:	48 8d 05 92 2f 00 00 	lea    0x2f92(%rip),%rax        # 4040 <completed.0>
    10ae:	48 39 f8             	cmp    %rdi,%rax
    10b1:	74 15                	je     10c8 <deregister_tm_clones+0x28>
    10b3:	48 8b 05 26 2f 00 00 	mov    0x2f26(%rip),%rax        # 3fe0 <_ITM_deregisterTMCloneTable@Base>
    10ba:	48 85 c0             	test   %rax,%rax
    10bd:	74 09                	je     10c8 <deregister_tm_clones+0x28>
    10bf:	ff e0                	jmp    *%rax
    10c1:	0f 1f 80 00 00 00 00 	nopl   0x0(%rax)
    10c8:	c3                   	ret    
    10c9:	0f 1f 80 00 00 00 00 	nopl   0x0(%rax)

00000000000010d0 <register_tm_clones>:
    10d0:	48 8d 3d 69 2f 00 00 	lea    0x2f69(%rip),%rdi        # 4040 <completed.0>
    10d7:	48 8d 35 62 2f 00 00 	lea    0x2f62(%rip),%rsi        # 4040 <completed.0>
    10de:	48 29 fe             	sub    %rdi,%rsi
    10e1:	48 89 f0             	mov    %rsi,%rax
    10e4:	48 c1 ee 3f          	shr    $0x3f,%rsi
    10e8:	48 c1 f8 03          	sar    $0x3,%rax
    10ec:	48 01 c6             	add    %rax,%rsi
    10ef:	48 d1 fe             	sar    %rsi
    10f2:	74 14                	je     1108 <register_tm_clones+0x38>
    10f4:	48 8b 05 f5 2e 00 00 	mov    0x2ef5(%rip),%rax        # 3ff0 <_ITM_registerTMCloneTable@Base>
    10fb:	48 85 c0             	test   %rax,%rax
    10fe:	74 08                	je     1108 <register_tm_clones+0x38>
    1100:	ff e0                	jmp    *%rax
    1102:	66 0f 1f 44 00 00    	nopw   0x0(%rax,%rax,1)
    1108:	c3                   	ret    
    1109:	0f 1f 80 00 00 00 00 	nopl   0x0(%rax)

0000000000001110 <__do_global_dtors_aux>:
    1110:	f3 0f 1e fa          	endbr64 
    1114:	80 3d 25 2f 00 00 00 	cmpb   $0x0,0x2f25(%rip)        # 4040 <completed.0>
    111b:	75 2b                	jne    1148 <__do_global_dtors_aux+0x38>
    111d:	55                   	push   %rbp
    111e:	48 83 3d 9a 2e 00 00 	cmpq   $0x0,0x2e9a(%rip)        # 3fc0 <__cxa_finalize@GLIBC_2.2.5>
    1125:	00 
    1126:	48 89 e5             	mov    %rsp,%rbp
    1129:	74 0c                	je     1137 <__do_global_dtors_aux+0x27>
    112b:	48 8b 3d fe 2e 00 00 	mov    0x2efe(%rip),%rdi        # 4030 <__dso_handle>
    1132:	e8 29 ff ff ff       	call   1060 <__cxa_finalize@plt>
    1137:	e8 64 ff ff ff       	call   10a0 <deregister_tm_clones>
    113c:	c6 05 fd 2e 00 00 01 	movb   $0x1,0x2efd(%rip)        # 4040 <completed.0>
    1143:	5d                   	pop    %rbp
    1144:	c3                   	ret    
    1145:	0f 1f 00             	nopl   (%rax)
    1148:	c3                   	ret    
    1149:	0f 1f 80 00 00 00 00 	nopl   0x0(%rax)

0000000000001150 <frame_dummy>:
    1150:	f3 0f 1e fa          	endbr64 
    1154:	e9 77 ff ff ff       	jmp    10d0 <register_tm_clones>

0000000000001159 <_Z3foov>:
    1159:	f3 0f 1e fa          	endbr64 
    115d:	55                   	push   %rbp
    115e:	48 89 e5             	mov    %rsp,%rbp
    1161:	48 8b 05 60 2e 00 00 	mov    0x2e60(%rip),%rax        # 3fc8 <x@@Base-0x70>
    1168:	8b 00                	mov    (%rax),%eax
    116a:	89 c6                	mov    %eax,%esi
    116c:	48 8b 05 5d 2e 00 00 	mov    0x2e5d(%rip),%rax        # 3fd0 <_ZSt4cout@GLIBCXX_3.4>
    1173:	48 89 c7             	mov    %rax,%rdi
    1176:	e8 15 ff ff ff       	call   1090 <_ZNSolsEi@plt>
    117b:	48 8b 05 56 2e 00 00 	mov    0x2e56(%rip),%rax        # 3fd8 <z@@Base-0x64>
    1182:	8b 00                	mov    (%rax),%eax
    1184:	89 c6                	mov    %eax,%esi
    1186:	48 8b 05 43 2e 00 00 	mov    0x2e43(%rip),%rax        # 3fd0 <_ZSt4cout@GLIBCXX_3.4>
    118d:	48 89 c7             	mov    %rax,%rdi
    1190:	e8 fb fe ff ff       	call   1090 <_ZNSolsEi@plt>
    1195:	90                   	nop
    1196:	5d                   	pop    %rbp
    1197:	c3                   	ret    

0000000000001198 <_Z41__static_initialization_and_destruction_0ii>:
    1198:	f3 0f 1e fa          	endbr64 
    119c:	55                   	push   %rbp
    119d:	48 89 e5             	mov    %rsp,%rbp
    11a0:	48 83 ec 10          	sub    $0x10,%rsp
    11a4:	89 7d fc             	mov    %edi,-0x4(%rbp)
    11a7:	89 75 f8             	mov    %esi,-0x8(%rbp)
    11aa:	83 7d fc 01          	cmpl   $0x1,-0x4(%rbp)
    11ae:	75 3b                	jne    11eb <_Z41__static_initialization_and_destruction_0ii+0x53>
    11b0:	81 7d f8 ff ff 00 00 	cmpl   $0xffff,-0x8(%rbp)
    11b7:	75 32                	jne    11eb <_Z41__static_initialization_and_destruction_0ii+0x53>
    11b9:	48 8d 05 81 2e 00 00 	lea    0x2e81(%rip),%rax        # 4041 <_ZStL8__ioinit>
    11c0:	48 89 c7             	mov    %rax,%rdi
    11c3:	e8 b8 fe ff ff       	call   1080 <_ZNSt8ios_base4InitC1Ev@plt>
    11c8:	48 8d 05 61 2e 00 00 	lea    0x2e61(%rip),%rax        # 4030 <__dso_handle>
    11cf:	48 89 c2             	mov    %rax,%rdx
    11d2:	48 8d 05 68 2e 00 00 	lea    0x2e68(%rip),%rax        # 4041 <_ZStL8__ioinit>
    11d9:	48 89 c6             	mov    %rax,%rsi
    11dc:	48 8b 05 15 2e 00 00 	mov    0x2e15(%rip),%rax        # 3ff8 <_ZNSt8ios_base4InitD1Ev@GLIBCXX_3.4>
    11e3:	48 89 c7             	mov    %rax,%rdi
    11e6:	e8 85 fe ff ff       	call   1070 <__cxa_atexit@plt>
    11eb:	90                   	nop
    11ec:	c9                   	leave  
    11ed:	c3                   	ret    

00000000000011ee <_GLOBAL__sub_I_var.cpp>:
    11ee:	f3 0f 1e fa          	endbr64 
    11f2:	55                   	push   %rbp
    11f3:	48 89 e5             	mov    %rsp,%rbp
    11f6:	be ff ff 00 00       	mov    $0xffff,%esi
    11fb:	bf 01 00 00 00       	mov    $0x1,%edi
    1200:	e8 93 ff ff ff       	call   1198 <_Z41__static_initialization_and_destruction_0ii>
    1205:	5d                   	pop    %rbp
    1206:	c3                   	ret    

Disassembly of section .fini:

0000000000001208 <_fini>:
    1208:	f3 0f 1e fa          	endbr64 
    120c:	48 83 ec 08          	sub    $0x8,%rsp
    1210:	48 83 c4 08          	add    $0x8,%rsp
    1214:	c3                   	ret    
